target datalayout = "e-m:e-p270:32:32-p271:32:32-p272:64:64-i64:64-i128:128-f80:128-n8:16:32:64-S128"
target triple = "x86_64-pc-linux-gnu"

%class.arith_util = type { ptr, ptr }
%class.bv_util = type { %class.bv_recognizers, ptr, ptr }
%class.bv_recognizers = type { i32 }
%"class.spacer::lemma_cluster_finder" = type { %"struct.spacer::lemma_cluster_finder::stats", ptr, %class.arith_util, %class.bv_util }
%"struct.spacer::lemma_cluster_finder::stats" = type { i32, [4 x i8], %class.stopwatch }
%class.stopwatch = type <{ %"class.std::chrono::time_point", %"class.std::chrono::duration", i8, [7 x i8] }>
%"class.std::chrono::time_point" = type { %"class.std::chrono::duration" }
%"class.std::chrono::duration" = type { i64 }

; Function Attrs: noinline noreturn nounwind uwtable
define linkonce_odr hidden void @__clang_call_terminate(ptr noundef %0) #10 comdat {
  %2 = call ptr @__cxa_begin_catch(ptr %0) #3
  call void @_ZSt9terminatev() #19
  unreachable
}

; Function Attrs: mustprogress nounwind uwtable
define linkonce_odr hidden void @_ZNSt6chrono8durationIlSt5ratioILl1ELl1000000000EEEC2IlvEERKT_(ptr noundef nonnull align 8 dereferenceable(8) %0, ptr noundef nonnull align 8 dereferenceable(8) %1) unnamed_addr #5 comdat align 2 {
  %3 = alloca ptr, align 8
  %4 = alloca ptr, align 8
  store ptr %0, ptr %3, align 8, !tbaa !451
  store ptr %1, ptr %4, align 8, !tbaa !321
  %5 = load ptr, ptr %3, align 8
  %6 = getelementptr inbounds nuw %"class.std::chrono::duration", ptr %5, i32 0, i32 0
  %7 = load ptr, ptr %4, align 8, !tbaa !321
  %8 = load i64, ptr %7, align 8, !tbaa !237
  store i64 %8, ptr %6, align 8, !tbaa !453
  ret void
}

; Function Attrs: mustprogress nounwind uwtable
define linkonce_odr hidden noundef i64 @_ZNSt6chrono15duration_valuesIlE4zeroEv() #5 comdat align 2 {
  ret i64 0
}

; Function Attrs: mustprogress nounwind uwtable
define linkonce_odr hidden i64 @_ZNSt6chrono8durationIlSt5ratioILl1ELl1000000000EEE4zeroEv() #5 comdat align 2 personality ptr @__gxx_personality_v0 {
  %1 = alloca %"class.std::chrono::duration", align 8
  %2 = alloca i64, align 8
  call void @llvm.lifetime.start.p0(i64 8, ptr %2) #3
  %3 = call noundef i64 @_ZNSt6chrono15duration_valuesIlE4zeroEv() #3
  store i64 %3, ptr %2, align 8, !tbaa !237
  invoke void @_ZNSt6chrono8durationIlSt5ratioILl1ELl1000000000EEEC2IlvEERKT_(ptr noundef nonnull align 8 dereferenceable(8) %1, ptr noundef nonnull align 8 dereferenceable(8) %2)
          to label %4 unwind label %7

4:                                                ; preds = %0
  call void @llvm.lifetime.end.p0(i64 8, ptr %2) #3
  %5 = getelementptr inbounds nuw %"class.std::chrono::duration", ptr %1, i32 0, i32 0
  %6 = load i64, ptr %5, align 8
  ret i64 %6

7:                                                ; preds = %0
  %8 = landingpad { ptr, i32 }
          catch ptr null
  %9 = extractvalue { ptr, i32 } %8, 0
  call void @__clang_call_terminate(ptr %9) #19
  unreachable
}

; Function Attrs: mustprogress nounwind uwtable
define linkonce_odr hidden void @_ZN9stopwatch5resetEv(ptr noundef nonnull align 8 dereferenceable(17) %0) #5 comdat align 2 {
  %2 = alloca ptr, align 8
  %3 = alloca %"class.std::chrono::duration", align 8
  store ptr %0, ptr %2, align 8, !tbaa !144
  %4 = load ptr, ptr %2, align 8
  call void @llvm.lifetime.start.p0(i64 8, ptr %3) #3
  %5 = call i64 @_ZNSt6chrono8durationIlSt5ratioILl1ELl1000000000EEE4zeroEv() #3
  %6 = getelementptr inbounds nuw %"class.std::chrono::duration", ptr %3, i32 0, i32 0
  store i64 %5, ptr %6, align 8
  %7 = getelementptr inbounds nuw %class.stopwatch, ptr %4, i32 0, i32 1
  call void @llvm.memcpy.p0.p0.i64(ptr align 8 %7, ptr align 8 %3, i64 8, i1 false), !tbaa.struct !450
  call void @llvm.lifetime.end.p0(i64 8, ptr %3) #3
  ret void
}

; Function Attrs: mustprogress nounwind uwtable
define linkonce_odr hidden void @_ZNSt6chrono10time_pointINS_3_V212steady_clockENS_8durationIlSt5ratioILl1ELl1000000000EEEEEC2Ev(ptr noundef nonnull align 8 dereferenceable(8) %0) unnamed_addr #5 comdat align 2 {
  %2 = alloca ptr, align 8
  store ptr %0, ptr %2, align 8, !tbaa !448
  %3 = load ptr, ptr %2, align 8
  %4 = getelementptr inbounds nuw %"class.std::chrono::time_point", ptr %3, i32 0, i32 0
  %5 = call i64 @_ZNSt6chrono8durationIlSt5ratioILl1ELl1000000000EEE4zeroEv() #3
  %6 = getelementptr inbounds nuw %"class.std::chrono::duration", ptr %4, i32 0, i32 0
  store i64 %5, ptr %6, align 8
  ret void
}

; Function Attrs: mustprogress nounwind uwtable
define linkonce_odr hidden void @_ZN6spacer20lemma_cluster_finder5stats5resetEv(ptr noundef nonnull align 8 dereferenceable(32) %0) #5 comdat align 2 {
  %2 = alloca ptr, align 8
  store ptr %0, ptr %2, align 8, !tbaa !131
  %3 = load ptr, ptr %2, align 8
  %4 = getelementptr inbounds nuw %"struct.spacer::lemma_cluster_finder::stats", ptr %3, i32 0, i32 0
  store i32 0, ptr %4, align 8, !tbaa !447
  %5 = getelementptr inbounds nuw %"struct.spacer::lemma_cluster_finder::stats", ptr %3, i32 0, i32 2
  call void @_ZN9stopwatch5resetEv(ptr noundef nonnull align 8 dereferenceable(17) %5)
  ret void
}

; Function Attrs: mustprogress uwtable
define linkonce_odr hidden void @_ZN9stopwatchC2Ev(ptr noundef nonnull align 8 dereferenceable(17) %0) unnamed_addr #4 comdat align 2 {
  %2 = alloca ptr, align 8
  store ptr %0, ptr %2, align 8, !tbaa !144
  %3 = load ptr, ptr %2, align 8
  %4 = getelementptr inbounds nuw %class.stopwatch, ptr %3, i32 0, i32 0
  call void @_ZNSt6chrono10time_pointINS_3_V212steady_clockENS_8durationIlSt5ratioILl1ELl1000000000EEEEEC2Ev(ptr noundef nonnull align 8 dereferenceable(8) %4)
  %5 = getelementptr inbounds nuw %class.stopwatch, ptr %3, i32 0, i32 2
  store i8 0, ptr %5, align 8, !tbaa !164
  call void @_ZN9stopwatch5resetEv(ptr noundef nonnull align 8 dereferenceable(17) %3)
  ret void
}

; Function Attrs: mustprogress uwtable
define linkonce_odr hidden void @_ZN6spacer20lemma_cluster_finder5statsC2Ev(ptr noundef nonnull align 8 dereferenceable(32) %0) unnamed_addr #4 comdat align 2 {
  %2 = alloca ptr, align 8
  store ptr %0, ptr %2, align 8, !tbaa !131
  %3 = load ptr, ptr %2, align 8
  %4 = getelementptr inbounds nuw %"struct.spacer::lemma_cluster_finder::stats", ptr %3, i32 0, i32 2
  call void @_ZN9stopwatchC2Ev(ptr noundef nonnull align 8 dereferenceable(17) %4)
  call void @_ZN6spacer20lemma_cluster_finder5stats5resetEv(ptr noundef nonnull align 8 dereferenceable(32) %3)
  ret void
}

; Function Attrs: mustprogress uwtable
define hidden void @_ZN6spacer20lemma_cluster_finderC2ER11ast_manager(ptr noundef nonnull align 8 dereferenceable(80) %0, ptr noundef nonnull align 8 dereferenceable(976) %1) unnamed_addr #4 align 2 {
  %3 = alloca ptr, align 8
  %4 = alloca ptr, align 8
  store ptr %0, ptr %3, align 8, !tbaa !122
  store ptr %1, ptr %4, align 8, !tbaa !10
  %5 = load ptr, ptr %3, align 8
  %6 = getelementptr inbounds nuw %"class.spacer::lemma_cluster_finder", ptr %5, i32 0, i32 0
  call void @_ZN6spacer20lemma_cluster_finder5statsC2Ev(ptr noundef nonnull align 8 dereferenceable(32) %6)
  %7 = getelementptr inbounds nuw %"class.spacer::lemma_cluster_finder", ptr %5, i32 0, i32 1
  %8 = load ptr, ptr %4, align 8, !tbaa !10
  store ptr %8, ptr %7, align 8, !tbaa !10
  %9 = getelementptr inbounds nuw %"class.spacer::lemma_cluster_finder", ptr %5, i32 0, i32 2
  %10 = getelementptr inbounds nuw %"class.spacer::lemma_cluster_finder", ptr %5, i32 0, i32 1
  %11 = load ptr, ptr %10, align 8, !tbaa !124
  call void @_ZN10arith_utilC1ER11ast_manager(ptr noundef nonnull align 8 dereferenceable(16) %9, ptr noundef nonnull align 8 dereferenceable(976) %11)
  %12 = getelementptr inbounds nuw %"class.spacer::lemma_cluster_finder", ptr %5, i32 0, i32 3
  %13 = getelementptr inbounds nuw %"class.spacer::lemma_cluster_finder", ptr %5, i32 0, i32 1
  %14 = load ptr, ptr %13, align 8, !tbaa !124
  call void @_ZN7bv_utilC1ER11ast_manager(ptr noundef nonnull align 8 dereferenceable(24) %12, ptr noundef nonnull align 8 dereferenceable(976) %14)
  ret void
}