; Function Attrs: mustprogress uwtable
define hidden void @_ZN6spacer20lemma_cluster_finderC2ER11ast_manager(ptr noundef nonnull align 8 dereferenceable(80) initializes((0, 4), (8, 25), (32, 40)) %0, ptr noundef nonnull align 8 dereferenceable(976) %1) unnamed_addr #3 align 2 personality ptr @__gxx_personality_v0 {
  %3 = getelementptr inbounds nuw i8, ptr %0, i64 8
  store i32 0, ptr %0, align 8, !tbaa !180
  tail call void @llvm.memset.p0.i64(ptr noundef nonnull align 8 dereferenceable(17) %3, i8 0, i64 17, i1 false)
  %4 = getelementptr inbounds nuw i8, ptr %0, i64 32
  store ptr %1, ptr %4, align 8, !tbaa !10
  %5 = getelementptr inbounds nuw i8, ptr %0, i64 40
  tail call void @_ZN10arith_utilC1ER11ast_manager(ptr noundef nonnull align 8 dereferenceable(16) %5, ptr noundef nonnull align 8 dereferenceable(976) %1)
  %6 = getelementptr inbounds nuw i8, ptr %0, i64 56
  %7 = load ptr, ptr %4, align 8, !tbaa !185
  tail call void @_ZN7bv_utilC1ER11ast_manager(ptr noundef nonnull align 8 dereferenceable(24) %6, ptr noundef nonnull align 8 dereferenceable(976) %7)
  ret void
}